target datalayout = "e-m:e-p270:32:32-p271:32:32-p272:64:64-i64:64-i128:128-f80:128-n8:16:32:64-S128"
target triple = "x86_64-pc-linux-gnu"

%struct.jsmntok_t = type { i32, i32, i32, i32 }

; Function Attrs: nounwind null_pointer_is_valid sspstrong uwtable
define i32 @json_get_array_len(ptr noundef %0) #7 {
  %2 = alloca i32, align 4
  %3 = alloca ptr, align 8
  store ptr %0, ptr %3, align 8
  %4 = load ptr, ptr %3, align 8
  %5 = getelementptr inbounds nuw %struct.jsmntok_t, ptr %4, i32 0, i32 0
  %6 = load i32, ptr %5, align 4
  %7 = icmp ne i32 %6, 2
  br i1 %7, label %8, label %9

8:                                                ; preds = %1
  store i32 -1, ptr %2, align 4
  br label %13

9:                                                ; preds = %1
  %10 = load ptr, ptr %3, align 8
  %11 = getelementptr inbounds nuw %struct.jsmntok_t, ptr %10, i32 0, i32 3
  %12 = load i32, ptr %11, align 4
  store i32 %12, ptr %2, align 4
  br label %13

13:                                               ; preds = %9, %8
  %14 = load i32, ptr %2, align 4
  ret i32 %14
}